target datalayout = "e-m:e-p270:32:32-p271:32:32-p272:64:64-i64:64-i128:128-f80:128-n8:16:32:64-S128"
target triple = "x86_64-pc-linux-gnu"

%struct._packet_info = type { ptr, ptr, i32, i32, %struct.nstime_t, %struct.nstime_t, %struct.nstime_t, i8, ptr, ptr, ptr, ptr, %struct._address, %struct._address, %struct._address, %struct._address, %struct._address, %struct._address, i32, ptr, i8, [3 x i8], %struct.anon, i32, i32, i32, i32, ptr, i8, ptr, ptr, i16, i16, i32, i32, i16, i32, i32, ptr, ptr, ptr, i8, i8, i16, i16, i16, i32, i16, i16, ptr, ptr, ptr, ptr, ptr, i32, i32 }
%struct.nstime_t = type { i64, i32 }
%struct._address = type { i32, i32, ptr, ptr }
%struct.anon = type { i8, [3 x i8] }
%struct.fp_info = type { i32, i32, i8, i16, i8, i8, i32, i8, i32, [64 x i32], [64 x i32], i32, [16 x i8], [16 x i32], [16 x i32], i8, i32, i32, i32, i16, i16, i32, ptr, ptr, i32, i32, [8 x i8], i32, i32, i32, i8 }

@ett_rlc = internal global i32 0, align 4
@.str.126 = private unnamed_addr constant [4 x i8] c"RLC\00", align 1
@proto_umts_rlc = hidden global i32 0, align 4
@proto_fp = external global i32, align 4
@.str.193 = private unnamed_addr constant [11 x i8] c" TM (CCCH)\00", align 1
@.str.194 = private unnamed_addr constant [11 x i8] c" UM (CCCH)\00", align 1

; Function Attrs: null_pointer_is_valid sspstrong uwtable
define internal i32 @dissect_rlc_ccch(ptr noundef %0, ptr noundef %1, ptr noundef %2, ptr noundef %3) #0 {
  %5 = alloca i32, align 4
  %6 = alloca ptr, align 8
  %7 = alloca ptr, align 8
  %8 = alloca ptr, align 8
  %9 = alloca ptr, align 8
  %10 = alloca ptr, align 8
  %11 = alloca ptr, align 8
  %12 = alloca ptr, align 8
  %13 = alloca ptr, align 8
  %14 = alloca i32, align 4
  store ptr %0, ptr %6, align 8
  store ptr %1, ptr %7, align 8
  store ptr %2, ptr %8, align 8
  store ptr %3, ptr %9, align 8
  call void @llvm.lifetime.start.p0(i64 8, ptr %10) #18
  call void @llvm.lifetime.start.p0(i64 8, ptr %11) #18
  store ptr null, ptr %11, align 8
  call void @llvm.lifetime.start.p0(i64 8, ptr %12) #18
  store ptr null, ptr %12, align 8
  call void @llvm.lifetime.start.p0(i64 8, ptr %13) #18
  %15 = load ptr, ptr %9, align 8
  store ptr %15, ptr %13, align 8
  %16 = load ptr, ptr %7, align 8
  %17 = getelementptr inbounds nuw %struct._packet_info, ptr %16, i32 0, i32 1
  %18 = load ptr, ptr %17, align 8
  call void @col_set_str(ptr noundef %18, i32 noundef 35, ptr noundef @.str.126)
  %19 = load ptr, ptr %7, align 8
  %20 = getelementptr inbounds nuw %struct._packet_info, ptr %19, i32 0, i32 1
  %21 = load ptr, ptr %20, align 8
  call void @col_clear(ptr noundef %21, i32 noundef 25)
  %22 = call ptr @wmem_file_scope()
  %23 = load ptr, ptr %7, align 8
  %24 = load i32, ptr @proto_fp, align 4
  %25 = call ptr @p_get_proto_data(ptr noundef %22, ptr noundef %23, i32 noundef %24, i32 noundef 0)
  store ptr %25, ptr %10, align 8
  %26 = load ptr, ptr %10, align 8
  %27 = icmp ne ptr %26, null
  br i1 %27, label %29, label %28

28:                                               ; preds = %4
  store i32 0, ptr %5, align 4
  store i32 1, ptr %14, align 4
  br label %61

29:                                               ; preds = %4
  %30 = load ptr, ptr %8, align 8
  %31 = icmp ne ptr %30, null
  br i1 %31, label %32, label %40

32:                                               ; preds = %29
  %33 = load ptr, ptr %8, align 8
  %34 = load i32, ptr @proto_umts_rlc, align 4
  %35 = load ptr, ptr %6, align 8
  %36 = call ptr @proto_tree_add_item(ptr noundef %33, i32 noundef %34, ptr noundef %35, i32 noundef 0, i32 noundef -1, i32 noundef 0)
  store ptr %36, ptr %11, align 8
  %37 = load ptr, ptr %11, align 8
  %38 = load i32, ptr @ett_rlc, align 4
  %39 = call ptr @proto_item_add_subtree(ptr noundef %37, i32 noundef %38)
  store ptr %39, ptr %12, align 8
  br label %40

40:                                               ; preds = %32, %29
  %41 = load ptr, ptr %10, align 8
  %42 = getelementptr inbounds nuw %struct.fp_info, ptr %41, i32 0, i32 5
  %43 = load i8, ptr %42, align 1, !range !8, !noundef !9
  %44 = trunc i8 %43 to i1
  br i1 %44, label %45, label %51

45:                                               ; preds = %40
  %46 = load ptr, ptr %11, align 8
  call void (ptr, ptr, ...) @proto_item_append_text(ptr noundef %46, ptr noundef @.str.193)
  %47 = load ptr, ptr %6, align 8
  %48 = load ptr, ptr %7, align 8
  %49 = load ptr, ptr %8, align 8
  %50 = load ptr, ptr %12, align 8
  call void @dissect_rlc_tm(i32 noundef 2, ptr noundef %47, ptr noundef %48, ptr noundef %49, ptr noundef %50)
  br label %58

51:                                               ; preds = %40
  %52 = load ptr, ptr %11, align 8
  call void (ptr, ptr, ...) @proto_item_append_text(ptr noundef %52, ptr noundef @.str.194)
  %53 = load ptr, ptr %6, align 8
  %54 = load ptr, ptr %7, align 8
  %55 = load ptr, ptr %8, align 8
  %56 = load ptr, ptr %12, align 8
  %57 = load ptr, ptr %13, align 8
  call void @dissect_rlc_um(i32 noundef 3, ptr noundef %53, ptr noundef %54, ptr noundef %55, ptr noundef %56, ptr noundef %57)
  br label %58

58:                                               ; preds = %51, %45
  %59 = load ptr, ptr %6, align 8
  %60 = call i32 @tvb_captured_length(ptr noundef %59)
  store i32 %60, ptr %5, align 4
  store i32 1, ptr %14, align 4
  br label %61

61:                                               ; preds = %58, %28
  call void @llvm.lifetime.end.p0(i64 8, ptr %13) #18
  call void @llvm.lifetime.end.p0(i64 8, ptr %12) #18
  call void @llvm.lifetime.end.p0(i64 8, ptr %11) #18
  call void @llvm.lifetime.end.p0(i64 8, ptr %10) #18
  %62 = load i32, ptr %5, align 4
  ret i32 %62
}