; Function Attrs: null_pointer_is_valid sspstrong uwtable
define internal i32 @dissect_rlc_ccch(ptr noundef %0, ptr noundef %1, ptr noundef %2, ptr noundef captures(address_is_null) %3) #0 {
  %5 = getelementptr inbounds nuw i8, ptr %1, i64 8
  %6 = load ptr, ptr %5, align 8
  tail call void @col_set_str(ptr noundef %6, i32 noundef 35, ptr noundef nonnull @.str.126)
  %7 = load ptr, ptr %5, align 8
  tail call void @col_clear(ptr noundef %7, i32 noundef 25)
  %8 = tail call ptr @wmem_file_scope()
  %9 = load i32, ptr @proto_fp, align 4
  %10 = tail call ptr @p_get_proto_data(ptr noundef %8, ptr noundef %1, i32 noundef %9, i32 noundef 0)
  %.not = icmp eq ptr %10, null
  br i1 %.not, label %25, label %11

11:                                               ; preds = %4
  %.not26 = icmp eq ptr %2, null
  br i1 %.not26, label %17, label %12

12:                                               ; preds = %11
  %13 = load i32, ptr @proto_umts_rlc, align 4
  %14 = tail call ptr @proto_tree_add_item(ptr noundef nonnull %2, i32 noundef %13, ptr noundef %0, i32 noundef 0, i32 noundef -1, i32 noundef 0)
  %15 = load i32, ptr @ett_rlc, align 4
  %16 = tail call ptr @proto_item_add_subtree(ptr noundef %14, i32 noundef %15)
  br label %17

17:                                               ; preds = %12, %11
  %.023 = phi ptr [ %14, %12 ], [ null, %11 ]
  %.022 = phi ptr [ %16, %12 ], [ null, %11 ]
  %18 = getelementptr inbounds nuw i8, ptr %10, i64 13
  %19 = load i8, ptr %18, align 1, !range !6, !noundef !7
  %20 = trunc nuw i8 %19 to i1
  br i1 %20, label %21, label %22

21:                                               ; preds = %17
  tail call void (ptr, ptr, ...) @proto_item_append_text(ptr noundef %.023, ptr noundef nonnull @.str.193)
  tail call fastcc void @dissect_rlc_tm(i32 noundef 2, ptr noundef %0, ptr noundef %1, ptr noundef %2, ptr noundef %.022)
  br label %23

22:                                               ; preds = %17
  tail call void (ptr, ptr, ...) @proto_item_append_text(ptr noundef %.023, ptr noundef nonnull @.str.194)
  tail call fastcc void @dissect_rlc_um(i32 noundef 3, ptr noundef %0, ptr noundef %1, ptr noundef %2, ptr noundef %.022, ptr noundef %3)
  br label %23

23:                                               ; preds = %22, %21
  %24 = tail call i32 @tvb_captured_length(ptr noundef %0)
  br label %25

25:                                               ; preds = %4, %23
  %.0 = phi i32 [ %24, %23 ], [ 0, %4 ]
  ret i32 %.0
}